target datalayout = "e-m:e-p270:32:32-p271:32:32-p272:64:64-i64:64-i128:128-f80:128-n8:16:32:64-S128"
target triple = "x86_64-pc-linux-gnu"

%struct.lua_State = type { ptr, i8, i8, i8, i8, i16, %union.StkIdRel, ptr, ptr, %union.StkIdRel, %union.StkIdRel, ptr, %union.StkIdRel, ptr, ptr, ptr, %struct.CallInfo, ptr, i64, i32, i32, i32, i32, i32, %struct.anon.3 }
%union.StkIdRel = type { ptr }
%struct.CallInfo = type { %union.StkIdRel, %union.StkIdRel, ptr, ptr, %union.anon, %union.anon.2, i32 }
%union.anon = type { %struct.anon.1 }
%struct.anon.1 = type { ptr, i64, i64 }
%union.anon.2 = type { i32 }
%struct.anon.3 = type { i32, i32 }
%struct.global_State = type { ptr, ptr, i64, i64, i64, i64, %struct.stringtable, %struct.TValue, %struct.TValue, i32, [6 x i8], i8, i8, i8, i8, i8, i8, ptr, ptr, ptr, ptr, ptr, ptr, ptr, ptr, ptr, ptr, ptr, ptr, ptr, ptr, ptr, ptr, ptr, ptr, ptr, ptr, ptr, [25 x ptr], [9 x ptr], [53 x [2 x ptr]], ptr, ptr }
%struct.stringtable = type { ptr, i32, i32 }
%struct.TValue = type { %union.Value, i8 }
%union.Value = type { ptr }
%union.StackValue = type { %struct.TValue }
%struct.UpVal = type { ptr, i8, i8, %union.anon.5, %union.anon.6 }
%union.anon.5 = type { ptr }
%union.anon.6 = type { %struct.anon.7 }
%struct.anon.7 = type { ptr, ptr }

; Function Attrs: nounwind uwtable
define internal void @relstack(ptr noundef %0) #0 {
  %2 = alloca ptr, align 8
  %3 = alloca ptr, align 8
  %4 = alloca ptr, align 8
  store ptr %0, ptr %2, align 8, !tbaa !4
  call void @llvm.lifetime.start.p0(i64 8, ptr %3) #11
  call void @llvm.lifetime.start.p0(i64 8, ptr %4) #11
  %5 = load ptr, ptr %2, align 8, !tbaa !4
  %6 = getelementptr inbounds nuw %struct.lua_State, ptr %5, i32 0, i32 6
  %7 = load ptr, ptr %6, align 8, !tbaa !34
  %8 = load ptr, ptr %2, align 8, !tbaa !4
  %9 = getelementptr inbounds nuw %struct.lua_State, ptr %8, i32 0, i32 10
  %10 = load ptr, ptr %9, align 8, !tbaa !34
  %11 = ptrtoint ptr %7 to i64
  %12 = ptrtoint ptr %10 to i64
  %13 = sub i64 %11, %12
  %14 = load ptr, ptr %2, align 8, !tbaa !4
  %15 = getelementptr inbounds nuw %struct.lua_State, ptr %14, i32 0, i32 6
  store i64 %13, ptr %15, align 8, !tbaa !34
  %16 = load ptr, ptr %2, align 8, !tbaa !4
  %17 = getelementptr inbounds nuw %struct.lua_State, ptr %16, i32 0, i32 12
  %18 = load ptr, ptr %17, align 8, !tbaa !34
  %19 = load ptr, ptr %2, align 8, !tbaa !4
  %20 = getelementptr inbounds nuw %struct.lua_State, ptr %19, i32 0, i32 10
  %21 = load ptr, ptr %20, align 8, !tbaa !34
  %22 = ptrtoint ptr %18 to i64
  %23 = ptrtoint ptr %21 to i64
  %24 = sub i64 %22, %23
  %25 = load ptr, ptr %2, align 8, !tbaa !4
  %26 = getelementptr inbounds nuw %struct.lua_State, ptr %25, i32 0, i32 12
  store i64 %24, ptr %26, align 8, !tbaa !34
  %27 = load ptr, ptr %2, align 8, !tbaa !4
  %28 = getelementptr inbounds nuw %struct.lua_State, ptr %27, i32 0, i32 11
  %29 = load ptr, ptr %28, align 8, !tbaa !51
  store ptr %29, ptr %4, align 8, !tbaa !52
  br label %30

30:                                               ; preds = %45, %1
  %31 = load ptr, ptr %4, align 8, !tbaa !52
  %32 = icmp ne ptr %31, null
  br i1 %32, label %33, label %50

33:                                               ; preds = %30
  %34 = load ptr, ptr %4, align 8, !tbaa !52
  %35 = getelementptr inbounds nuw %struct.UpVal, ptr %34, i32 0, i32 3
  %36 = load ptr, ptr %35, align 8, !tbaa !34
  %37 = load ptr, ptr %2, align 8, !tbaa !4
  %38 = getelementptr inbounds nuw %struct.lua_State, ptr %37, i32 0, i32 10
  %39 = load ptr, ptr %38, align 8, !tbaa !34
  %40 = ptrtoint ptr %36 to i64
  %41 = ptrtoint ptr %39 to i64
  %42 = sub i64 %40, %41
  %43 = load ptr, ptr %4, align 8, !tbaa !52
  %44 = getelementptr inbounds nuw %struct.UpVal, ptr %43, i32 0, i32 3
  store i64 %42, ptr %44, align 8, !tbaa !34
  br label %45

45:                                               ; preds = %33
  %46 = load ptr, ptr %4, align 8, !tbaa !52
  %47 = getelementptr inbounds nuw %struct.UpVal, ptr %46, i32 0, i32 4
  %48 = getelementptr inbounds nuw %struct.anon.7, ptr %47, i32 0, i32 0
  %49 = load ptr, ptr %48, align 8, !tbaa !34
  store ptr %49, ptr %4, align 8, !tbaa !52
  br label %30

50:                                               ; preds = %30
  %51 = load ptr, ptr %2, align 8, !tbaa !4
  %52 = getelementptr inbounds nuw %struct.lua_State, ptr %51, i32 0, i32 8
  %53 = load ptr, ptr %52, align 8, !tbaa !53
  store ptr %53, ptr %3, align 8, !tbaa !54
  br label %54

54:                                               ; preds = %80, %50
  %55 = load ptr, ptr %3, align 8, !tbaa !54
  %56 = icmp ne ptr %55, null
  br i1 %56, label %57, label %84

57:                                               ; preds = %54
  %58 = load ptr, ptr %3, align 8, !tbaa !54
  %59 = getelementptr inbounds nuw %struct.CallInfo, ptr %58, i32 0, i32 1
  %60 = load ptr, ptr %59, align 8, !tbaa !34
  %61 = load ptr, ptr %2, align 8, !tbaa !4
  %62 = getelementptr inbounds nuw %struct.lua_State, ptr %61, i32 0, i32 10
  %63 = load ptr, ptr %62, align 8, !tbaa !34
  %64 = ptrtoint ptr %60 to i64
  %65 = ptrtoint ptr %63 to i64
  %66 = sub i64 %64, %65
  %67 = load ptr, ptr %3, align 8, !tbaa !54
  %68 = getelementptr inbounds nuw %struct.CallInfo, ptr %67, i32 0, i32 1
  store i64 %66, ptr %68, align 8, !tbaa !34
  %69 = load ptr, ptr %3, align 8, !tbaa !54
  %70 = getelementptr inbounds nuw %struct.CallInfo, ptr %69, i32 0, i32 0
  %71 = load ptr, ptr %70, align 8, !tbaa !34
  %72 = load ptr, ptr %2, align 8, !tbaa !4
  %73 = getelementptr inbounds nuw %struct.lua_State, ptr %72, i32 0, i32 10
  %74 = load ptr, ptr %73, align 8, !tbaa !34
  %75 = ptrtoint ptr %71 to i64
  %76 = ptrtoint ptr %74 to i64
  %77 = sub i64 %75, %76
  %78 = load ptr, ptr %3, align 8, !tbaa !54
  %79 = getelementptr inbounds nuw %struct.CallInfo, ptr %78, i32 0, i32 0
  store i64 %77, ptr %79, align 8, !tbaa !34
  br label %80

80:                                               ; preds = %57
  %81 = load ptr, ptr %3, align 8, !tbaa !54
  %82 = getelementptr inbounds nuw %struct.CallInfo, ptr %81, i32 0, i32 2
  %83 = load ptr, ptr %82, align 8, !tbaa !55
  store ptr %83, ptr %3, align 8, !tbaa !54
  br label %54

84:                                               ; preds = %54
  call void @llvm.lifetime.end.p0(i64 8, ptr %4) #11
  call void @llvm.lifetime.end.p0(i64 8, ptr %3) #11
  ret void
}

; Function Attrs: nounwind uwtable
define hidden i32 @luaD_reallocstack(ptr noundef %0, i32 noundef %1, i32 noundef %2) #0 {
  %4 = alloca i32, align 4
  %5 = alloca ptr, align 8
  %6 = alloca i32, align 4
  %7 = alloca i32, align 4
  %8 = alloca i32, align 4
  %9 = alloca i32, align 4
  %10 = alloca ptr, align 8
  %11 = alloca ptr, align 8
  %12 = alloca i8, align 1
  %13 = alloca i32, align 4
  store ptr %0, ptr %5, align 8, !tbaa !4
  store i32 %1, ptr %6, align 4, !tbaa !9
  store i32 %2, ptr %7, align 4, !tbaa !9
  call void @llvm.lifetime.start.p0(i64 4, ptr %8) #11
  %14 = load ptr, ptr %5, align 8, !tbaa !4
  %15 = getelementptr inbounds nuw %struct.lua_State, ptr %14, i32 0, i32 9
  %16 = load ptr, ptr %15, align 8, !tbaa !34
  %17 = load ptr, ptr %5, align 8, !tbaa !4
  %18 = getelementptr inbounds nuw %struct.lua_State, ptr %17, i32 0, i32 10
  %19 = load ptr, ptr %18, align 8, !tbaa !34
  %20 = ptrtoint ptr %16 to i64
  %21 = ptrtoint ptr %19 to i64
  %22 = sub i64 %20, %21
  %23 = sdiv exact i64 %22, 16
  %24 = trunc i64 %23 to i32
  store i32 %24, ptr %8, align 4, !tbaa !9
  call void @llvm.lifetime.start.p0(i64 4, ptr %9) #11
  call void @llvm.lifetime.start.p0(i64 8, ptr %10) #11
  call void @llvm.lifetime.start.p0(i64 8, ptr %11) #11
  %25 = load ptr, ptr %5, align 8, !tbaa !4
  %26 = getelementptr inbounds nuw %struct.lua_State, ptr %25, i32 0, i32 10
  %27 = load ptr, ptr %26, align 8, !tbaa !34
  store ptr %27, ptr %11, align 8, !tbaa !11
  call void @llvm.lifetime.start.p0(i64 1, ptr %12) #11
  %28 = load ptr, ptr %5, align 8, !tbaa !4
  %29 = getelementptr inbounds nuw %struct.lua_State, ptr %28, i32 0, i32 7
  %30 = load ptr, ptr %29, align 8, !tbaa !15
  %31 = getelementptr inbounds nuw %struct.global_State, ptr %30, i32 0, i32 14
  %32 = load i8, ptr %31, align 1, !tbaa !50
  store i8 %32, ptr %12, align 1, !tbaa !34
  %33 = load ptr, ptr %5, align 8, !tbaa !4
  call void @relstack(ptr noundef %33)
  %34 = load ptr, ptr %5, align 8, !tbaa !4
  %35 = getelementptr inbounds nuw %struct.lua_State, ptr %34, i32 0, i32 7
  %36 = load ptr, ptr %35, align 8, !tbaa !15
  %37 = getelementptr inbounds nuw %struct.global_State, ptr %36, i32 0, i32 14
  store i8 1, ptr %37, align 1, !tbaa !50
  %38 = load ptr, ptr %5, align 8, !tbaa !4
  %39 = load ptr, ptr %11, align 8, !tbaa !11
  %40 = load i32, ptr %8, align 4, !tbaa !9
  %41 = add nsw i32 %40, 5
  %42 = sext i32 %41 to i64
  %43 = mul i64 %42, 16
  %44 = load i32, ptr %6, align 4, !tbaa !9
  %45 = add nsw i32 %44, 5
  %46 = sext i32 %45 to i64
  %47 = mul i64 %46, 16
  %48 = call ptr @luaM_realloc_(ptr noundef %38, ptr noundef %39, i64 noundef %43, i64 noundef %47)
  store ptr %48, ptr %10, align 8, !tbaa !11
  %49 = load i8, ptr %12, align 1, !tbaa !34
  %50 = load ptr, ptr %5, align 8, !tbaa !4
  %51 = getelementptr inbounds nuw %struct.lua_State, ptr %50, i32 0, i32 7
  %52 = load ptr, ptr %51, align 8, !tbaa !15
  %53 = getelementptr inbounds nuw %struct.global_State, ptr %52, i32 0, i32 14
  store i8 %49, ptr %53, align 1, !tbaa !50
  %54 = load ptr, ptr %10, align 8, !tbaa !11
  %55 = icmp eq ptr %54, null
  %56 = zext i1 %55 to i32
  %57 = icmp ne i32 %56, 0
  %58 = zext i1 %57 to i32
  %59 = sext i32 %58 to i64
  %60 = call i64 @llvm.expect.i64(i64 %59, i64 0)
  %61 = icmp ne i64 %60, 0
  br i1 %61, label %62, label %70

62:                                               ; preds = %3
  %63 = load ptr, ptr %5, align 8, !tbaa !4
  %64 = load ptr, ptr %11, align 8, !tbaa !11
  call void @correctstack(ptr noundef %63, ptr noundef %64)
  %65 = load i32, ptr %7, align 4, !tbaa !9
  %66 = icmp ne i32 %65, 0
  br i1 %66, label %67, label %69

67:                                               ; preds = %62
  %68 = load ptr, ptr %5, align 8, !tbaa !4
  call void @luaD_throw(ptr noundef %68, i32 noundef 4) #13
  unreachable

69:                                               ; preds = %62
  store i32 0, ptr %4, align 4
  store i32 1, ptr %13, align 4
  br label %101

70:                                               ; preds = %3
  %71 = load ptr, ptr %10, align 8, !tbaa !11
  %72 = load ptr, ptr %5, align 8, !tbaa !4
  %73 = getelementptr inbounds nuw %struct.lua_State, ptr %72, i32 0, i32 10
  store ptr %71, ptr %73, align 8, !tbaa !34
  %74 = load ptr, ptr %5, align 8, !tbaa !4
  %75 = load ptr, ptr %11, align 8, !tbaa !11
  call void @correctstack(ptr noundef %74, ptr noundef %75)
  %76 = load ptr, ptr %5, align 8, !tbaa !4
  %77 = getelementptr inbounds nuw %struct.lua_State, ptr %76, i32 0, i32 10
  %78 = load ptr, ptr %77, align 8, !tbaa !34
  %79 = load i32, ptr %6, align 4, !tbaa !9
  %80 = sext i32 %79 to i64
  %81 = getelementptr inbounds %union.StackValue, ptr %78, i64 %80
  %82 = load ptr, ptr %5, align 8, !tbaa !4
  %83 = getelementptr inbounds nuw %struct.lua_State, ptr %82, i32 0, i32 9
  store ptr %81, ptr %83, align 8, !tbaa !34
  %84 = load i32, ptr %8, align 4, !tbaa !9
  %85 = add nsw i32 %84, 5
  store i32 %85, ptr %9, align 4, !tbaa !9
  br label %86

86:                                               ; preds = %97, %70
  %87 = load i32, ptr %9, align 4, !tbaa !9
  %88 = load i32, ptr %6, align 4, !tbaa !9
  %89 = add nsw i32 %88, 5
  %90 = icmp slt i32 %87, %89
  br i1 %90, label %91, label %100

91:                                               ; preds = %86
  %92 = load ptr, ptr %10, align 8, !tbaa !11
  %93 = load i32, ptr %9, align 4, !tbaa !9
  %94 = sext i32 %93 to i64
  %95 = getelementptr inbounds %union.StackValue, ptr %92, i64 %94
  %96 = getelementptr inbounds nuw %struct.TValue, ptr %95, i32 0, i32 1
  store i8 0, ptr %96, align 8, !tbaa !34
  br label %97

97:                                               ; preds = %91
  %98 = load i32, ptr %9, align 4, !tbaa !9
  %99 = add nsw i32 %98, 1
  store i32 %99, ptr %9, align 4, !tbaa !9
  br label %86

100:                                              ; preds = %86
  store i32 1, ptr %4, align 4
  store i32 1, ptr %13, align 4
  br label %101

101:                                              ; preds = %100, %69
  call void @llvm.lifetime.end.p0(i64 1, ptr %12) #11
  call void @llvm.lifetime.end.p0(i64 8, ptr %11) #11
  call void @llvm.lifetime.end.p0(i64 8, ptr %10) #11
  call void @llvm.lifetime.end.p0(i64 4, ptr %9) #11
  call void @llvm.lifetime.end.p0(i64 4, ptr %8) #11
  %102 = load i32, ptr %4, align 4
  ret i32 %102
}