; Function Attrs: nounwind uwtable
define hidden range(i32 0, 2) i32 @luaD_reallocstack(ptr noundef %0, i32 noundef %1, i32 noundef %2) local_unnamed_addr #0 {
  %4 = getelementptr inbounds nuw i8, ptr %0, i64 40
  %5 = load ptr, ptr %4, align 8, !tbaa !27
  %6 = getelementptr inbounds nuw i8, ptr %0, i64 48
  %7 = load ptr, ptr %6, align 8, !tbaa !27
  %8 = ptrtoint ptr %5 to i64
  %9 = ptrtoint ptr %7 to i64
  %10 = sub i64 %8, %9
  %11 = lshr exact i64 %10, 4
  %12 = trunc i64 %11 to i32
  %13 = getelementptr inbounds nuw i8, ptr %0, i64 24
  %14 = load ptr, ptr %13, align 8, !tbaa !4
  %15 = getelementptr inbounds nuw i8, ptr %14, i64 109
  %16 = load i8, ptr %15, align 1, !tbaa !40
  %17 = getelementptr inbounds nuw i8, ptr %0, i64 16
  %18 = load ptr, ptr %17, align 8, !tbaa !27
  %19 = ptrtoint ptr %18 to i64
  %20 = sub i64 %19, %9
  store i64 %20, ptr %17, align 8, !tbaa !27
  %21 = getelementptr inbounds nuw i8, ptr %0, i64 64
  %22 = load ptr, ptr %21, align 8, !tbaa !27
  %23 = ptrtoint ptr %22 to i64
  %24 = sub i64 %23, %9
  store i64 %24, ptr %21, align 8, !tbaa !27
  %25 = getelementptr inbounds nuw i8, ptr %0, i64 56
  %.023.i = load ptr, ptr %25, align 8, !tbaa !27
  %.not24.i = icmp eq ptr %.023.i, null
  br i1 %.not24.i, label %._crit_edge.i, label %.lr.ph.i

.lr.ph.i:                                         ; preds = %3, %.lr.ph.i
  %.025.i = phi ptr [ %.0.i, %.lr.ph.i ], [ %.023.i, %3 ]
  %26 = getelementptr inbounds nuw i8, ptr %.025.i, i64 16
  %27 = load ptr, ptr %26, align 8, !tbaa !27
  %28 = load ptr, ptr %6, align 8, !tbaa !27
  %29 = ptrtoint ptr %27 to i64
  %30 = ptrtoint ptr %28 to i64
  %31 = sub i64 %29, %30
  store i64 %31, ptr %26, align 8, !tbaa !27
  %32 = getelementptr inbounds nuw i8, ptr %.025.i, i64 24
  %.0.i = load ptr, ptr %32, align 8, !tbaa !27
  %.not.i = icmp eq ptr %.0.i, null
  br i1 %.not.i, label %._crit_edge.i, label %.lr.ph.i

._crit_edge.i:                                    ; preds = %.lr.ph.i, %3
  %33 = getelementptr inbounds nuw i8, ptr %0, i64 32
  %.02126.i = load ptr, ptr %33, align 8, !tbaa !41
  %.not2227.i = icmp eq ptr %.02126.i, null
  br i1 %.not2227.i, label %relstack.exit, label %.lr.ph30.i

.lr.ph30.i:                                       ; preds = %._crit_edge.i, %.lr.ph30.i
  %.02128.i = phi ptr [ %.021.i, %.lr.ph30.i ], [ %.02126.i, %._crit_edge.i ]
  %34 = getelementptr inbounds nuw i8, ptr %.02128.i, i64 8
  %35 = load ptr, ptr %34, align 8, !tbaa !27
  %36 = load ptr, ptr %6, align 8, !tbaa !27
  %37 = ptrtoint ptr %35 to i64
  %38 = ptrtoint ptr %36 to i64
  %39 = sub i64 %37, %38
  store i64 %39, ptr %34, align 8, !tbaa !27
  %40 = load ptr, ptr %.02128.i, align 8, !tbaa !27
  %41 = load ptr, ptr %6, align 8, !tbaa !27
  %42 = ptrtoint ptr %40 to i64
  %43 = ptrtoint ptr %41 to i64
  %44 = sub i64 %42, %43
  store i64 %44, ptr %.02128.i, align 8, !tbaa !27
  %45 = getelementptr inbounds nuw i8, ptr %.02128.i, i64 16
  %.021.i = load ptr, ptr %45, align 8, !tbaa !41
  %.not22.i = icmp eq ptr %.021.i, null
  br i1 %.not22.i, label %relstack.exit, label %.lr.ph30.i

relstack.exit:                                    ; preds = %.lr.ph30.i, %._crit_edge.i
  %46 = load ptr, ptr %13, align 8, !tbaa !4
  %47 = getelementptr inbounds nuw i8, ptr %46, i64 109
  store i8 1, ptr %47, align 1, !tbaa !40
  %48 = shl i64 %10, 28
  %sext = add i64 %48, 21474836480
  %49 = ashr i64 %sext, 32
  %50 = shl nsw i64 %49, 4
  %51 = add nsw i32 %1, 5
  %52 = sext i32 %51 to i64
  %53 = shl nsw i64 %52, 4
  %54 = tail call ptr @luaM_realloc_(ptr noundef nonnull %0, ptr noundef %7, i64 noundef %50, i64 noundef %53) #13
  %55 = load ptr, ptr %13, align 8, !tbaa !4
  %56 = getelementptr inbounds nuw i8, ptr %55, i64 109
  store i8 %16, ptr %56, align 1, !tbaa !40
  %57 = icmp eq ptr %54, null
  br i1 %57, label %58, label %60, !prof !42

58:                                               ; preds = %relstack.exit
  tail call fastcc void @correctstack(ptr noundef nonnull %0)
  %.not = icmp eq i32 %2, 0
  br i1 %.not, label %.loopexit, label %59

59:                                               ; preds = %58
  tail call void @luaD_throw(ptr noundef nonnull %0, i32 noundef 4) #15
  unreachable

60:                                               ; preds = %relstack.exit
  store ptr %54, ptr %6, align 8, !tbaa !27
  %61 = load i64, ptr %17, align 8, !tbaa !27
  %62 = getelementptr inbounds i8, ptr %54, i64 %61
  store ptr %62, ptr %17, align 8, !tbaa !27
  %63 = load i64, ptr %21, align 8, !tbaa !27
  %64 = getelementptr inbounds i8, ptr %54, i64 %63
  store ptr %64, ptr %21, align 8, !tbaa !27
  %.01.i = load ptr, ptr %25, align 8, !tbaa !27
  %.not2.i = icmp eq ptr %.01.i, null
  br i1 %.not2.i, label %._crit_edge.i35, label %.lr.ph.i32

.lr.ph.i32:                                       ; preds = %60, %.lr.ph.i32
  %.03.i = phi ptr [ %.0.i33, %.lr.ph.i32 ], [ %.01.i, %60 ]
  %65 = load ptr, ptr %6, align 8, !tbaa !27
  %66 = getelementptr inbounds nuw i8, ptr %.03.i, i64 16
  %67 = load i64, ptr %66, align 8, !tbaa !27
  %68 = getelementptr inbounds i8, ptr %65, i64 %67
  store ptr %68, ptr %66, align 8, !tbaa !27
  %69 = getelementptr inbounds nuw i8, ptr %.03.i, i64 24
  %.0.i33 = load ptr, ptr %69, align 8, !tbaa !27
  %.not.i34 = icmp eq ptr %.0.i33, null
  br i1 %.not.i34, label %._crit_edge.i35, label %.lr.ph.i32

._crit_edge.i35:                                  ; preds = %.lr.ph.i32, %60
  %.0234.i = load ptr, ptr %33, align 8, !tbaa !41
  %.not245.i = icmp eq ptr %.0234.i, null
  br i1 %.not245.i, label %correctstack.exit, label %.lr.ph8.i

.lr.ph8.i:                                        ; preds = %._crit_edge.i35, %82
  %.0236.i = phi ptr [ %.023.i36, %82 ], [ %.0234.i, %._crit_edge.i35 ]
  %70 = load ptr, ptr %6, align 8, !tbaa !27
  %71 = getelementptr inbounds nuw i8, ptr %.0236.i, i64 8
  %72 = load i64, ptr %71, align 8, !tbaa !27
  %73 = getelementptr inbounds i8, ptr %70, i64 %72
  store ptr %73, ptr %71, align 8, !tbaa !27
  %74 = load ptr, ptr %6, align 8, !tbaa !27
  %75 = load i64, ptr %.0236.i, align 8, !tbaa !27
  %76 = getelementptr inbounds i8, ptr %74, i64 %75
  store ptr %76, ptr %.0236.i, align 8, !tbaa !27
  %77 = getelementptr inbounds nuw i8, ptr %.0236.i, i64 60
  %78 = load i32, ptr %77, align 4, !tbaa !43
  %79 = and i32 %78, 32768
  %.not25.i = icmp eq i32 %79, 0
  br i1 %.not25.i, label %80, label %82

80:                                               ; preds = %.lr.ph8.i
  %81 = getelementptr inbounds nuw i8, ptr %.0236.i, i64 40
  store volatile i32 1, ptr %81, align 8, !tbaa !27
  br label %82

82:                                               ; preds = %80, %.lr.ph8.i
  %83 = getelementptr inbounds nuw i8, ptr %.0236.i, i64 16
  %.023.i36 = load ptr, ptr %83, align 8, !tbaa !41
  %.not24.i37 = icmp eq ptr %.023.i36, null
  br i1 %.not24.i37, label %correctstack.exit, label %.lr.ph8.i

correctstack.exit:                                ; preds = %82, %._crit_edge.i35
  %84 = load ptr, ptr %6, align 8, !tbaa !27
  %85 = sext i32 %1 to i64
  %86 = getelementptr inbounds %union.StackValue, ptr %84, i64 %85
  store ptr %86, ptr %4, align 8, !tbaa !27
  %87 = icmp sgt i32 %1, %12
  br i1 %87, label %.lr.ph, label %.loopexit

.lr.ph:                                           ; preds = %correctstack.exit, %.lr.ph
  %indvars.iv = phi i64 [ %indvars.iv.next, %.lr.ph ], [ %49, %correctstack.exit ]
  %88 = getelementptr inbounds %union.StackValue, ptr %54, i64 %indvars.iv, i32 0, i32 1
  store i8 0, ptr %88, align 8, !tbaa !27
  %indvars.iv.next = add nsw i64 %indvars.iv, 1
  %89 = icmp slt i64 %indvars.iv.next, %52
  br i1 %89, label %.lr.ph, label %.loopexit

.loopexit:                                        ; preds = %.lr.ph, %correctstack.exit, %58
  %.0 = phi i32 [ 0, %58 ], [ 1, %correctstack.exit ], [ 1, %.lr.ph ]
  ret i32 %.0
}